target datalayout = "e-m:e-p270:32:32-p271:32:32-p272:64:64-i64:64-i128:128-f80:128-n8:16:32:64-S128"
target triple = "x86_64-pc-linux-gnu"

%class.methodHandle = type { ptr, ptr }
%class.Bytecode = type <{ ptr, i32, [4 x i8] }>
%class.Bytecode_invoke = type { %class.Bytecode_member_ref }
%class.Bytecode_member_ref = type { %class.Bytecode.base, ptr }
%class.Bytecode.base = type <{ ptr, i32 }>

@TypeProfileArgsLimit = external global i32, align 4
@TypeProfileLevel = external global i32, align 4
@_ZN9Bytecodes10_java_codeE = external constant [239 x i32], align 16

; Function Attrs: mustprogress nounwind uwtable
define linkonce_odr hidden void @_ZN9Bytecodes5checkENS_4CodeE(i32 noundef %0) #1 comdat align 2 {
  %2 = alloca i32, align 4
  store i32 %0, ptr %2, align 4
  ret void
}

; Function Attrs: mustprogress nounwind uwtable
define linkonce_odr hidden noundef i32 @_ZN9Bytecodes4castEi(i32 noundef %0) #1 comdat align 2 {
  %2 = alloca i32, align 4
  store i32 %0, ptr %2, align 4
  %3 = load i32, ptr %2, align 4
  ret i32 %3
}

; Function Attrs: mustprogress nounwind uwtable
define linkonce_odr hidden noundef i32 @_ZN9Bytecodes9java_codeENS_4CodeE(i32 noundef %0) #1 comdat align 2 {
  %2 = alloca i32, align 4
  store i32 %0, ptr %2, align 4
  %3 = load i32, ptr %2, align 4
  call void @_ZN9Bytecodes5checkENS_4CodeE(i32 noundef %3)
  %4 = load i32, ptr %2, align 4
  %5 = sext i32 %4 to i64
  %6 = getelementptr inbounds [239 x i32], ptr @_ZN9Bytecodes10_java_codeE, i64 0, i64 %5
  %7 = load i32, ptr %6, align 4
  ret i32 %7
}

; Function Attrs: mustprogress nounwind uwtable
define linkonce_odr hidden noundef i32 @_ZN9Bytecodes7code_atEPK6MethodPh(ptr noundef %0, ptr noundef %1) #1 comdat align 2 {
  %3 = alloca ptr, align 8
  %4 = alloca ptr, align 8
  %5 = alloca i32, align 4
  store ptr %0, ptr %3, align 8
  store ptr %1, ptr %4, align 8
  %6 = load ptr, ptr %4, align 8
  %7 = load i8, ptr %6, align 1
  %8 = zext i8 %7 to i32
  %9 = call noundef i32 @_ZN9Bytecodes4castEi(i32 noundef %8)
  store i32 %9, ptr %5, align 4
  %10 = load i32, ptr %5, align 4
  %11 = icmp ne i32 %10, 202
  br i1 %11, label %12, label %14

12:                                               ; preds = %2
  %13 = load i32, ptr %5, align 4
  br label %18

14:                                               ; preds = %2
  %15 = load ptr, ptr %3, align 8
  %16 = load ptr, ptr %4, align 8
  %17 = call noundef i32 @_ZN9Bytecodes22non_breakpoint_code_atEPK6MethodPh(ptr noundef %15, ptr noundef %16)
  br label %18

18:                                               ; preds = %14, %12
  %19 = phi i32 [ %13, %12 ], [ %17, %14 ]
  ret i32 %19
}

; Function Attrs: mustprogress nounwind uwtable
define linkonce_odr hidden noundef ptr @_ZNK8Bytecode7addr_atEi(ptr noundef nonnull align 8 dereferenceable(12) %0, i32 noundef %1) #1 comdat align 2 {
  %3 = alloca ptr, align 8
  %4 = alloca i32, align 4
  store ptr %0, ptr %3, align 8
  store i32 %1, ptr %4, align 4
  %5 = load ptr, ptr %3, align 8
  %6 = getelementptr inbounds %class.Bytecode, ptr %5, i32 0, i32 0
  %7 = load ptr, ptr %6, align 8
  %8 = load i32, ptr %4, align 4
  %9 = sext i32 %8 to i64
  %10 = getelementptr inbounds i8, ptr %7, i64 %9
  ret ptr %10
}

; Function Attrs: mustprogress nounwind uwtable
define linkonce_odr hidden noundef ptr @_ZNK12methodHandle3objEv(ptr noundef nonnull align 8 dereferenceable(16) %0) #1 comdat align 2 {
  %2 = alloca ptr, align 8
  store ptr %0, ptr %2, align 8
  %3 = load ptr, ptr %2, align 8
  %4 = getelementptr inbounds %class.methodHandle, ptr %3, i32 0, i32 0
  %5 = load ptr, ptr %4, align 8
  ret ptr %5
}

; Function Attrs: mustprogress nounwind uwtable
define linkonce_odr hidden noundef i32 @_ZNK8Bytecode9java_codeEv(ptr noundef nonnull align 8 dereferenceable(12) %0) #1 comdat align 2 {
  %2 = alloca ptr, align 8
  store ptr %0, ptr %2, align 8
  %3 = load ptr, ptr %2, align 8
  %4 = call noundef i32 @_ZNK8Bytecode4codeEv(ptr noundef nonnull align 8 dereferenceable(12) %3)
  %5 = call noundef i32 @_ZN9Bytecodes9java_codeENS_4CodeE(i32 noundef %4)
  ret i32 %5
}

; Function Attrs: mustprogress nounwind uwtable
define linkonce_odr hidden noundef i32 @_ZNK8Bytecode4codeEv(ptr noundef nonnull align 8 dereferenceable(12) %0) #1 comdat align 2 {
  %2 = alloca ptr, align 8
  store ptr %0, ptr %2, align 8
  %3 = load ptr, ptr %2, align 8
  %4 = getelementptr inbounds %class.Bytecode, ptr %3, i32 0, i32 1
  %5 = load i32, ptr %4, align 8
  ret i32 %5
}

; Function Attrs: mustprogress nounwind uwtable
define linkonce_odr hidden void @_ZN8BytecodeC2EP6MethodPh(ptr noundef nonnull align 8 dereferenceable(12) %0, ptr noundef %1, ptr noundef %2) unnamed_addr #1 comdat align 2 {
  %4 = alloca ptr, align 8
  %5 = alloca ptr, align 8
  %6 = alloca ptr, align 8
  store ptr %0, ptr %4, align 8
  store ptr %1, ptr %5, align 8
  store ptr %2, ptr %6, align 8
  %7 = load ptr, ptr %4, align 8
  %8 = getelementptr inbounds %class.Bytecode, ptr %7, i32 0, i32 0
  %9 = load ptr, ptr %6, align 8
  store ptr %9, ptr %8, align 8
  %10 = getelementptr inbounds %class.Bytecode, ptr %7, i32 0, i32 1
  %11 = load ptr, ptr %5, align 8
  %12 = call noundef ptr @_ZNK8Bytecode7addr_atEi(ptr noundef nonnull align 8 dereferenceable(12) %7, i32 noundef 0)
  %13 = call noundef i32 @_ZN9Bytecodes7code_atEPK6MethodPh(ptr noundef %11, ptr noundef %12)
  store i32 %13, ptr %10, align 8
  ret void
}

; Function Attrs: mustprogress nounwind uwtable
define linkonce_odr hidden noundef ptr @_ZNK12methodHandleclEv(ptr noundef nonnull align 8 dereferenceable(16) %0) #1 comdat align 2 {
  %2 = alloca ptr, align 8
  store ptr %0, ptr %2, align 8
  %3 = load ptr, ptr %2, align 8
  %4 = call noundef ptr @_ZNK12methodHandle3objEv(ptr noundef nonnull align 8 dereferenceable(16) %3)
  ret ptr %4
}

; Function Attrs: mustprogress nounwind uwtable
define linkonce_odr hidden noundef i32 @_ZNK8Bytecode11invoke_codeEv(ptr noundef nonnull align 8 dereferenceable(12) %0) #1 comdat align 2 {
  %2 = alloca ptr, align 8
  store ptr %0, ptr %2, align 8
  %3 = load ptr, ptr %2, align 8
  %4 = call noundef i32 @_ZNK8Bytecode4codeEv(ptr noundef nonnull align 8 dereferenceable(12) %3)
  %5 = icmp eq i32 %4, 233
  br i1 %5, label %6, label %8

6:                                                ; preds = %1
  %7 = call noundef i32 @_ZNK8Bytecode4codeEv(ptr noundef nonnull align 8 dereferenceable(12) %3)
  br label %10

8:                                                ; preds = %1
  %9 = call noundef i32 @_ZNK8Bytecode9java_codeEv(ptr noundef nonnull align 8 dereferenceable(12) %3)
  br label %10

10:                                               ; preds = %8, %6
  %11 = phi i32 [ %7, %6 ], [ %9, %8 ]
  ret i32 %11
}

; Function Attrs: mustprogress nounwind uwtable
define linkonce_odr hidden void @_ZN19Bytecode_member_refC2ERK12methodHandlei(ptr noundef nonnull align 8 dereferenceable(24) %0, ptr noundef nonnull align 8 dereferenceable(16) %1, i32 noundef %2) unnamed_addr #1 comdat align 2 {
  %4 = alloca ptr, align 8
  %5 = alloca ptr, align 8
  %6 = alloca i32, align 4
  store ptr %0, ptr %4, align 8
  store ptr %1, ptr %5, align 8
  store i32 %2, ptr %6, align 4
  %7 = load ptr, ptr %4, align 8
  %8 = load ptr, ptr %5, align 8
  %9 = call noundef ptr @_ZNK12methodHandleclEv(ptr noundef nonnull align 8 dereferenceable(16) %8)
  %10 = load ptr, ptr %5, align 8
  %11 = call noundef ptr @_ZNK12methodHandleclEv(ptr noundef nonnull align 8 dereferenceable(16) %10)
  %12 = load i32, ptr %6, align 4
  %13 = call noundef ptr @_ZNK6Method8bcp_fromEi(ptr noundef nonnull align 8 dereferenceable(88) %11, i32 noundef %12)
  call void @_ZN8BytecodeC2EP6MethodPh(ptr noundef nonnull align 8 dereferenceable(12) %7, ptr noundef %9, ptr noundef %13)
  %14 = getelementptr inbounds %class.Bytecode_member_ref, ptr %7, i32 0, i32 1
  %15 = load ptr, ptr %5, align 8
  %16 = call noundef ptr @_ZNK12methodHandleclEv(ptr noundef nonnull align 8 dereferenceable(16) %15)
  store ptr %16, ptr %14, align 8
  ret void
}

; Function Attrs: mustprogress nounwind uwtable
define linkonce_odr hidden noundef ptr @_ZNK12methodHandle12non_null_objEv(ptr noundef nonnull align 8 dereferenceable(16) %0) #1 comdat align 2 {
  %2 = alloca ptr, align 8
  store ptr %0, ptr %2, align 8
  %3 = load ptr, ptr %2, align 8
  %4 = getelementptr inbounds %class.methodHandle, ptr %3, i32 0, i32 0
  %5 = load ptr, ptr %4, align 8
  ret ptr %5
}

; Function Attrs: mustprogress nounwind uwtable
define linkonce_odr hidden noundef zeroext i1 @_ZNK15Bytecode_invoke15is_invokehandleEv(ptr noundef nonnull align 8 dereferenceable(24) %0) #1 comdat align 2 {
  %2 = alloca ptr, align 8
  store ptr %0, ptr %2, align 8
  %3 = load ptr, ptr %2, align 8
  %4 = call noundef i32 @_ZNK8Bytecode11invoke_codeEv(ptr noundef nonnull align 8 dereferenceable(12) %3)
  %5 = icmp eq i32 %4, 233
  ret i1 %5
}

; Function Attrs: mustprogress nounwind uwtable
define linkonce_odr hidden noundef zeroext i1 @_ZNK15Bytecode_invoke16is_invokedynamicEv(ptr noundef nonnull align 8 dereferenceable(24) %0) #1 comdat align 2 {
  %2 = alloca ptr, align 8
  store ptr %0, ptr %2, align 8
  %3 = load ptr, ptr %2, align 8
  %4 = call noundef i32 @_ZNK8Bytecode11invoke_codeEv(ptr noundef nonnull align 8 dereferenceable(12) %3)
  %5 = icmp eq i32 %4, 186
  ret i1 %5
}

; Function Attrs: mustprogress nounwind uwtable
define linkonce_odr hidden void @_ZN15Bytecode_invokeC2ERK12methodHandlei(ptr noundef nonnull align 8 dereferenceable(24) %0, ptr noundef nonnull align 8 dereferenceable(16) %1, i32 noundef %2) unnamed_addr #1 comdat align 2 {
  %4 = alloca ptr, align 8
  %5 = alloca ptr, align 8
  %6 = alloca i32, align 4
  store ptr %0, ptr %4, align 8
  store ptr %1, ptr %5, align 8
  store i32 %2, ptr %6, align 4
  %7 = load ptr, ptr %4, align 8
  %8 = load ptr, ptr %5, align 8
  %9 = load i32, ptr %6, align 4
  call void @_ZN19Bytecode_member_refC2ERK12methodHandlei(ptr noundef nonnull align 8 dereferenceable(24) %7, ptr noundef nonnull align 8 dereferenceable(16) %8, i32 noundef %9)
  call void @_ZNK15Bytecode_invoke6verifyEv(ptr noundef nonnull align 8 dereferenceable(24) %7)
  ret void
}

; Function Attrs: mustprogress nounwind uwtable
define linkonce_odr hidden noundef ptr @_ZNK12methodHandleptEv(ptr noundef nonnull align 8 dereferenceable(16) %0) #1 comdat align 2 {
  %2 = alloca ptr, align 8
  store ptr %0, ptr %2, align 8
  %3 = load ptr, ptr %2, align 8
  %4 = call noundef ptr @_ZNK12methodHandle12non_null_objEv(ptr noundef nonnull align 8 dereferenceable(16) %3)
  ret ptr %4
}

; Function Attrs: mustprogress nounwind uwtable
define hidden noundef i32 @_ZN10MethodData22profile_arguments_flagEv() #1 align 2 {
  %1 = load i32, ptr @TypeProfileLevel, align 4
  %2 = urem i32 %1, 10
  ret i32 %2
}

; Function Attrs: mustprogress nounwind uwtable
define hidden noundef zeroext i1 @_ZN10MethodData14profile_jsr292ERK12methodHandlei(ptr noundef nonnull align 8 dereferenceable(16) %0, i32 noundef %1) #1 align 2 {
  %3 = alloca i1, align 1
  %4 = alloca ptr, align 8
  %5 = alloca i32, align 4
  %6 = alloca %class.Bytecode_invoke, align 8
  store ptr %0, ptr %4, align 8
  store i32 %1, ptr %5, align 4
  %7 = load ptr, ptr %4, align 8
  %8 = call noundef ptr @_ZNK12methodHandleptEv(ptr noundef nonnull align 8 dereferenceable(16) %7)
  %9 = call noundef zeroext i1 @_ZNK6Method23is_compiled_lambda_formEv(ptr noundef nonnull align 8 dereferenceable(88) %8)
  br i1 %9, label %10, label %11

10:                                               ; preds = %2
  store i1 true, ptr %3, align 1
  br label %19

11:                                               ; preds = %2
  %12 = load ptr, ptr %4, align 8
  %13 = load i32, ptr %5, align 4
  call void @_ZN15Bytecode_invokeC2ERK12methodHandlei(ptr noundef nonnull align 8 dereferenceable(24) %6, ptr noundef nonnull align 8 dereferenceable(16) %12, i32 noundef %13)
  %14 = call noundef zeroext i1 @_ZNK15Bytecode_invoke16is_invokedynamicEv(ptr noundef nonnull align 8 dereferenceable(24) %6)
  br i1 %14, label %17, label %15

15:                                               ; preds = %11
  %16 = call noundef zeroext i1 @_ZNK15Bytecode_invoke15is_invokehandleEv(ptr noundef nonnull align 8 dereferenceable(24) %6)
  br label %17

17:                                               ; preds = %15, %11
  %18 = phi i1 [ true, %11 ], [ %16, %15 ]
  store i1 %18, ptr %3, align 1
  br label %19

19:                                               ; preds = %17, %10
  %20 = load i1, ptr %3, align 1
  ret i1 %20
}

; Function Attrs: mustprogress nounwind uwtable
define hidden noundef zeroext i1 @_ZN10MethodData21profile_all_argumentsEv() #1 align 2 {
  %1 = call noundef i32 @_ZN10MethodData22profile_arguments_flagEv()
  %2 = icmp eq i32 %1, 2
  ret i1 %2
}

; Function Attrs: mustprogress nounwind uwtable
define hidden noundef zeroext i1 @_ZN10MethodData17profile_argumentsEv() #1 align 2 {
  %1 = call noundef i32 @_ZN10MethodData22profile_arguments_flagEv()
  %2 = icmp sgt i32 %1, 0
  br i1 %2, label %3, label %9

3:                                                ; preds = %0
  %4 = call noundef i32 @_ZN10MethodData22profile_arguments_flagEv()
  %5 = icmp sle i32 %4, 2
  br i1 %5, label %6, label %9

6:                                                ; preds = %3
  %7 = load i32, ptr @TypeProfileArgsLimit, align 4
  %8 = icmp sgt i32 %7, 0
  br label %9

9:                                                ; preds = %6, %3, %0
  %10 = phi i1 [ false, %3 ], [ false, %0 ], [ %8, %6 ]
  ret i1 %10
}

; Function Attrs: mustprogress nounwind uwtable
define hidden noundef zeroext i1 @_ZN10MethodData28profile_arguments_for_invokeERK12methodHandlei(ptr noundef nonnull align 8 dereferenceable(16) %0, i32 noundef %1) #1 align 2 {
  %3 = alloca i1, align 1
  %4 = alloca ptr, align 8
  %5 = alloca i32, align 4
  store ptr %0, ptr %4, align 8
  store i32 %1, ptr %5, align 4
  %6 = call noundef zeroext i1 @_ZN10MethodData17profile_argumentsEv()
  br i1 %6, label %8, label %7

7:                                                ; preds = %2
  store i1 false, ptr %3, align 1
  br label %20

8:                                                ; preds = %2
  %9 = call noundef zeroext i1 @_ZN10MethodData21profile_all_argumentsEv()
  br i1 %9, label %10, label %11

10:                                               ; preds = %8
  store i1 true, ptr %3, align 1
  br label %20

11:                                               ; preds = %8
  %12 = load ptr, ptr %4, align 8
  %13 = load i32, ptr %5, align 4
  %14 = call noundef zeroext i1 @_ZN10MethodData14profile_unsafeERK12methodHandlei(ptr noundef nonnull align 8 dereferenceable(16) %12, i32 noundef %13)
  br i1 %14, label %15, label %16

15:                                               ; preds = %11
  store i1 true, ptr %3, align 1
  br label %20

16:                                               ; preds = %11
  %17 = load ptr, ptr %4, align 8
  %18 = load i32, ptr %5, align 4
  %19 = call noundef zeroext i1 @_ZN10MethodData14profile_jsr292ERK12methodHandlei(ptr noundef nonnull align 8 dereferenceable(16) %17, i32 noundef %18)
  store i1 %19, ptr %3, align 1
  br label %20

20:                                               ; preds = %16, %15, %10, %7
  %21 = load i1, ptr %3, align 1
  ret i1 %21
}