; Function Attrs: mustprogress nounwind uwtable
define hidden noundef zeroext i1 @_ZN10MethodData28profile_arguments_for_invokeERK12methodHandlei(ptr nocapture noundef nonnull readonly align 8 dereferenceable(16) %0, i32 noundef %1) local_unnamed_addr #2 align 2 {
  %3 = alloca %class.Bytecode_invoke, align 8
  %4 = load i32, ptr @TypeProfileLevel, align 4
  %5 = urem i32 %4, 10
  %6 = add nsw i32 %5, -1
  %or.cond.i = icmp ult i32 %6, 2
  %7 = load i32, ptr @TypeProfileArgsLimit, align 4
  %8 = icmp sgt i32 %7, 0
  %9 = select i1 %or.cond.i, i1 %8, i1 false
  br i1 %9, label %10, label %35

10:                                               ; preds = %2
  %11 = icmp eq i32 %5, 2
  br i1 %11, label %35, label %12

12:                                               ; preds = %10
  %13 = tail call noundef zeroext i1 @_ZN10MethodData14profile_unsafeERK12methodHandlei(ptr noundef nonnull align 8 dereferenceable(16) %0, i32 noundef %1)
  br i1 %13, label %35, label %14

14:                                               ; preds = %12
  call void @llvm.lifetime.start.p0(i64 24, ptr nonnull %3)
  %15 = load ptr, ptr %0, align 8
  %16 = tail call noundef zeroext i1 @_ZNK6Method23is_compiled_lambda_formEv(ptr noundef nonnull align 8 dereferenceable(88) %15) #20
  br i1 %16, label %_ZN10MethodData14profile_jsr292ERK12methodHandlei.exit, label %17

17:                                               ; preds = %14
  %18 = load ptr, ptr %0, align 8
  %19 = tail call noundef ptr @_ZNK6Method8bcp_fromEi(ptr noundef nonnull align 8 dereferenceable(88) %18, i32 noundef %1) #20
  store ptr %19, ptr %3, align 8
  %20 = load i8, ptr %19, align 1
  %21 = zext i8 %20 to i32
  %.not.i.i.i.i.i = icmp eq i8 %20, -54
  br i1 %.not.i.i.i.i.i, label %22, label %_ZN15Bytecode_invokeC2ERK12methodHandlei.exit.i

22:                                               ; preds = %17
  %23 = tail call noundef i32 @_ZN9Bytecodes22non_breakpoint_code_atEPK6MethodPh(ptr noundef nonnull %18, ptr noundef nonnull %19) #20
  br label %_ZN15Bytecode_invokeC2ERK12methodHandlei.exit.i

_ZN15Bytecode_invokeC2ERK12methodHandlei.exit.i:  ; preds = %22, %17
  %24 = phi i32 [ %23, %22 ], [ %21, %17 ]
  %25 = getelementptr inbounds i8, ptr %3, i64 8
  store i32 %24, ptr %25, align 8
  %26 = getelementptr inbounds i8, ptr %3, i64 16
  %27 = load ptr, ptr %0, align 8
  store ptr %27, ptr %26, align 8
  call void @_ZNK15Bytecode_invoke6verifyEv(ptr noundef nonnull align 8 dereferenceable(24) %3) #20
  %28 = load i32, ptr %25, align 8
  %29 = icmp eq i32 %28, 233
  br i1 %29, label %_ZN10MethodData14profile_jsr292ERK12methodHandlei.exit, label %_ZNK15Bytecode_invoke16is_invokedynamicEv.exit.i

_ZNK15Bytecode_invoke16is_invokedynamicEv.exit.i: ; preds = %_ZN15Bytecode_invokeC2ERK12methodHandlei.exit.i
  %30 = sext i32 %28 to i64
  %31 = getelementptr inbounds [239 x i32], ptr @_ZN9Bytecodes10_java_codeE, i64 0, i64 %30
  %32 = load i32, ptr %31, align 4
  %33 = icmp eq i32 %32, 186
  %34 = icmp eq i32 %32, 233
  %spec.select.i = or i1 %33, %34
  br label %_ZN10MethodData14profile_jsr292ERK12methodHandlei.exit

_ZN10MethodData14profile_jsr292ERK12methodHandlei.exit: ; preds = %14, %_ZN15Bytecode_invokeC2ERK12methodHandlei.exit.i, %_ZNK15Bytecode_invoke16is_invokedynamicEv.exit.i
  %.0.i = phi i1 [ true, %14 ], [ true, %_ZN15Bytecode_invokeC2ERK12methodHandlei.exit.i ], [ %spec.select.i, %_ZNK15Bytecode_invoke16is_invokedynamicEv.exit.i ]
  call void @llvm.lifetime.end.p0(i64 24, ptr nonnull %3)
  br label %35

35:                                               ; preds = %12, %10, %2, %_ZN10MethodData14profile_jsr292ERK12methodHandlei.exit
  %.0 = phi i1 [ %.0.i, %_ZN10MethodData14profile_jsr292ERK12methodHandlei.exit ], [ false, %2 ], [ true, %10 ], [ true, %12 ]
  ret i1 %.0
}